target datalayout = "e-m:e-p270:32:32-p271:32:32-p272:64:64-i64:64-i128:128-f80:128-n8:16:32:64-S128"
target triple = "x86_64-pc-linux-gnu"

%struct._object = type { %union.anon, ptr }
%union.anon = type { i64 }
%struct._PyRangeIterObject = type { %struct._object, i64, i64, i64 }

; Function Attrs: nounwind uwtable
define internal ptr @rangeiter_next(ptr noundef %0) #0 {
  %2 = alloca ptr, align 8
  %3 = alloca ptr, align 8
  %4 = alloca i64, align 8
  store ptr %0, ptr %3, align 8, !tbaa !4
  %5 = load ptr, ptr %3, align 8, !tbaa !4
  %6 = getelementptr inbounds nuw %struct._PyRangeIterObject, ptr %5, i32 0, i32 3
  %7 = load i64, ptr %6, align 8, !tbaa !28
  %8 = icmp sgt i64 %7, 0
  br i1 %8, label %9, label %26

9:                                                ; preds = %1
  call void @llvm.lifetime.start.p0(i64 8, ptr %4) #5
  %10 = load ptr, ptr %3, align 8, !tbaa !4
  %11 = getelementptr inbounds nuw %struct._PyRangeIterObject, ptr %10, i32 0, i32 1
  %12 = load i64, ptr %11, align 8, !tbaa !30
  store i64 %12, ptr %4, align 8, !tbaa !16
  %13 = load i64, ptr %4, align 8, !tbaa !16
  %14 = load ptr, ptr %3, align 8, !tbaa !4
  %15 = getelementptr inbounds nuw %struct._PyRangeIterObject, ptr %14, i32 0, i32 2
  %16 = load i64, ptr %15, align 8, !tbaa !31
  %17 = add i64 %13, %16
  %18 = load ptr, ptr %3, align 8, !tbaa !4
  %19 = getelementptr inbounds nuw %struct._PyRangeIterObject, ptr %18, i32 0, i32 1
  store i64 %17, ptr %19, align 8, !tbaa !30
  %20 = load ptr, ptr %3, align 8, !tbaa !4
  %21 = getelementptr inbounds nuw %struct._PyRangeIterObject, ptr %20, i32 0, i32 3
  %22 = load i64, ptr %21, align 8, !tbaa !28
  %23 = add i64 %22, -1
  store i64 %23, ptr %21, align 8, !tbaa !28
  %24 = load i64, ptr %4, align 8, !tbaa !16
  %25 = call ptr @PyLong_FromLong(i64 noundef %24)
  store ptr %25, ptr %2, align 8
  call void @llvm.lifetime.end.p0(i64 8, ptr %4) #5
  br label %27

26:                                               ; preds = %1
  store ptr null, ptr %2, align 8
  br label %27

27:                                               ; preds = %26, %9
  %28 = load ptr, ptr %2, align 8
  ret ptr %28
}