; Function Attrs: nounwind uwtable
define internal ptr @rangeiter_next(ptr noundef captures(none) %0) #0 {
  %2 = getelementptr inbounds nuw i8, ptr %0, i64 32
  %3 = load i64, ptr %2, align 8, !tbaa !22
  %4 = icmp sgt i64 %3, 0
  br i1 %4, label %5, label %13

5:                                                ; preds = %1
  %6 = getelementptr inbounds nuw i8, ptr %0, i64 16
  %7 = load i64, ptr %6, align 8, !tbaa !18
  %8 = getelementptr inbounds nuw i8, ptr %0, i64 24
  %9 = load i64, ptr %8, align 8, !tbaa !21
  %10 = add i64 %9, %7
  store i64 %10, ptr %6, align 8, !tbaa !18
  %11 = add nsw i64 %3, -1
  store i64 %11, ptr %2, align 8, !tbaa !22
  %12 = tail call ptr @PyLong_FromLong(i64 noundef %7) #6
  br label %13

13:                                               ; preds = %1, %5
  %.0 = phi ptr [ %12, %5 ], [ null, %1 ]
  ret ptr %.0
}